target datalayout = "e-m:e-p270:32:32-p271:32:32-p272:64:64-i64:64-i128:128-f80:128-n8:16:32:64-S128"
target triple = "x86_64-pc-linux-gnu"

%struct.cip_connection_triad = type { i16, i16, i32 }
%struct.cip_safety_packet_data = type { i16 }
%struct._proto_node = type { ptr, ptr, ptr, ptr, ptr, ptr, ptr }
%struct.field_info = type { ptr, i32, i32, i32, i32, i32, i32, ptr, ptr, ptr, i32, i32 }

@hf_cipsafety_data = internal global i32 0, align 4
@hf_cipsafety_timestamp = internal global i32 0, align 4
@hf_cipsafety_crc_s5_0 = internal global i32 0, align 4
@hf_cipsafety_crc_s5_1 = internal global i32 0, align 4
@hf_cipsafety_crc_s5_2 = internal global i32 0, align 4
@hf_cip_safety_message_encoding = internal global i32 0, align 4

; Function Attrs: alwaysinline nounwind
define internal ptr @memcpy.inline(ptr noalias %0, ptr noalias %1, i64 %2) #8 {
  %4 = alloca ptr, align 8
  %5 = alloca ptr, align 8
  %6 = alloca i64, align 8
  store ptr %0, ptr %4, align 8
  store ptr %1, ptr %5, align 8
  store i64 %2, ptr %6, align 8
  %7 = load ptr, ptr %4, align 8
  %8 = load ptr, ptr %5, align 8
  %9 = load i64, ptr %6, align 8
  %10 = load ptr, ptr %4, align 8
  %11 = call i64 @llvm.objectsize.i64.p0(ptr %10, i1 false, i1 true, i1 true)
  %12 = call ptr @__memcpy_chk(ptr noundef %7, ptr noundef %8, i64 noundef %9, i64 noundef %11) #11
  ret ptr %12
}

; Function Attrs: null_pointer_is_valid sspstrong uwtable
define internal i32 @compute_crc_s5_short_data(i32 noundef %0, i16 noundef zeroext %1, i8 noundef zeroext %2, i16 noundef zeroext %3, ptr noundef %4, i32 noundef %5) #0 {
  %7 = alloca i32, align 4
  %8 = alloca i16, align 2
  %9 = alloca i8, align 1
  %10 = alloca i16, align 2
  %11 = alloca ptr, align 8
  %12 = alloca i32, align 4
  %13 = alloca i32, align 4
  %14 = alloca i32, align 4
  %15 = alloca i32, align 4
  %16 = alloca i32, align 4
  store i32 %0, ptr %7, align 4
  store i16 %1, ptr %8, align 2
  store i8 %2, ptr %9, align 1
  store i16 %3, ptr %10, align 2
  store ptr %4, ptr %11, align 8
  store i32 %5, ptr %12, align 4
  call void @llvm.lifetime.start.p0(i64 4, ptr %13) #11
  %17 = load i32, ptr %7, align 4
  %18 = call i32 @crc32_0x5D6DCB_seed(ptr noundef %8, i32 noundef 2, i32 noundef %17)
  store i32 %18, ptr %13, align 4
  call void @llvm.lifetime.start.p0(i64 4, ptr %14) #11
  %19 = load i32, ptr %13, align 4
  %20 = call i32 @crc32_0x5D6DCB_seed(ptr noundef %9, i32 noundef 1, i32 noundef %19)
  store i32 %20, ptr %14, align 4
  call void @llvm.lifetime.start.p0(i64 4, ptr %15) #11
  call void @llvm.lifetime.start.p0(i64 4, ptr %16) #11
  %21 = load ptr, ptr %11, align 8
  %22 = load i32, ptr %12, align 4
  %23 = load i32, ptr %14, align 4
  %24 = call i32 @crc32_0x5D6DCB_seed(ptr noundef %21, i32 noundef %22, i32 noundef %23)
  store i32 %24, ptr %15, align 4
  %25 = load i32, ptr %15, align 4
  %26 = call i32 @crc32_0x5D6DCB_seed(ptr noundef %10, i32 noundef 2, i32 noundef %25)
  store i32 %26, ptr %16, align 4
  %27 = load i32, ptr %16, align 4
  call void @llvm.lifetime.end.p0(i64 4, ptr %16) #11
  call void @llvm.lifetime.end.p0(i64 4, ptr %15) #11
  call void @llvm.lifetime.end.p0(i64 4, ptr %14) #11
  call void @llvm.lifetime.end.p0(i64 4, ptr %13) #11
  ret i32 %27
}

; Function Attrs: null_pointer_is_valid sspstrong uwtable
define internal i32 @compute_crc_s5_pid(ptr noundef %0) #0 {
  %2 = alloca ptr, align 8
  %3 = alloca [8 x i8], align 1
  store ptr %0, ptr %2, align 8
  call void @llvm.lifetime.start.p0(i64 8, ptr %3) #11
  %4 = getelementptr inbounds [8 x i8], ptr %3, i64 0, i64 0
  %5 = load ptr, ptr %2, align 8
  %6 = getelementptr inbounds nuw %struct.cip_connection_triad, ptr %5, i32 0, i32 1
  %7 = call ptr @memcpy.inline(ptr noundef %4, ptr noundef %6, i64 noundef 2) #11
  %8 = getelementptr [8 x i8], ptr %3, i64 0, i64 2
  %9 = load ptr, ptr %2, align 8
  %10 = getelementptr inbounds nuw %struct.cip_connection_triad, ptr %9, i32 0, i32 2
  %11 = call ptr @memcpy.inline(ptr noundef %8, ptr noundef %10, i64 noundef 4) #11
  %12 = getelementptr [8 x i8], ptr %3, i64 0, i64 6
  %13 = load ptr, ptr %2, align 8
  %14 = getelementptr inbounds nuw %struct.cip_connection_triad, ptr %13, i32 0, i32 0
  %15 = call ptr @memcpy.inline(ptr noundef %12, ptr noundef %14, i64 noundef 2) #11
  %16 = getelementptr inbounds [8 x i8], ptr %3, i64 0, i64 0
  %17 = call i32 @crc32_0x5D6DCB_seed(ptr noundef %16, i32 noundef 8, i32 noundef 0)
  call void @llvm.lifetime.end.p0(i64 8, ptr %3) #11
  ret i32 %17
}

; Function Attrs: inlinehint nounwind null_pointer_is_valid sspstrong uwtable
define internal void @proto_item_set_generated(ptr noundef %0) #5 {
  %2 = alloca ptr, align 8
  store ptr %0, ptr %2, align 8
  %3 = load ptr, ptr %2, align 8
  %4 = icmp ne ptr %3, null
  br i1 %4, label %5, label %24

5:                                                ; preds = %1
  br label %6

6:                                                ; preds = %5
  %7 = load ptr, ptr %2, align 8
  %8 = getelementptr inbounds nuw %struct._proto_node, ptr %7, i32 0, i32 5
  %9 = load ptr, ptr %8, align 8
  %10 = icmp ne ptr %9, null
  br i1 %10, label %11, label %22

11:                                               ; preds = %6
  %12 = load ptr, ptr %2, align 8
  %13 = getelementptr inbounds nuw %struct._proto_node, ptr %12, i32 0, i32 5
  %14 = load ptr, ptr %13, align 8
  %15 = getelementptr inbounds nuw %struct.field_info, ptr %14, i32 0, i32 6
  %16 = load i32, ptr %15, align 4
  %17 = or i32 %16, 2
  %18 = load ptr, ptr %2, align 8
  %19 = getelementptr inbounds nuw %struct._proto_node, ptr %18, i32 0, i32 5
  %20 = load ptr, ptr %19, align 8
  %21 = getelementptr inbounds nuw %struct.field_info, ptr %20, i32 0, i32 6
  store i32 %17, ptr %21, align 4
  br label %22

22:                                               ; preds = %11, %6
  br label %23

23:                                               ; preds = %22
  br label %24

24:                                               ; preds = %23, %1
  ret void
}

; Function Attrs: null_pointer_is_valid sspstrong uwtable
define internal void @dissect_extended_format_1_or_2_byte_data(ptr noundef %0, ptr noundef %1, ptr noundef %2, i32 noundef %3, i1 noundef zeroext %4, ptr noundef %5, ptr noundef %6) #0 {
  %8 = alloca ptr, align 8
  %9 = alloca ptr, align 8
  %10 = alloca ptr, align 8
  %11 = alloca i32, align 4
  %12 = alloca i8, align 1
  %13 = alloca ptr, align 8
  %14 = alloca ptr, align 8
  %15 = alloca ptr, align 8
  %16 = alloca i32, align 4
  %17 = alloca i32, align 4
  %18 = alloca i32, align 4
  %19 = alloca i32, align 4
  %20 = alloca i16, align 2
  %21 = alloca i32, align 4
  store ptr %0, ptr %8, align 8
  store ptr %1, ptr %9, align 8
  store ptr %2, ptr %10, align 8
  store i32 %3, ptr %11, align 4
  %22 = zext i1 %4 to i8
  store i8 %22, ptr %12, align 1
  store ptr %5, ptr %13, align 8
  store ptr %6, ptr %14, align 8
  call void @llvm.lifetime.start.p0(i64 8, ptr %15) #11
  %23 = load ptr, ptr %9, align 8
  %24 = load i32, ptr @hf_cip_safety_message_encoding, align 4
  %25 = load ptr, ptr %10, align 8
  %26 = call ptr @proto_tree_add_uint(ptr noundef %23, i32 noundef %24, ptr noundef %25, i32 noundef 0, i32 noundef 0, i32 noundef 1)
  store ptr %26, ptr %15, align 8
  %27 = load ptr, ptr %15, align 8
  call void @proto_item_set_generated(ptr noundef %27)
  %28 = load ptr, ptr %9, align 8
  %29 = load i32, ptr @hf_cipsafety_data, align 4
  %30 = load ptr, ptr %10, align 8
  %31 = load i32, ptr %11, align 4
  %32 = call ptr @proto_tree_add_item(ptr noundef %28, i32 noundef %29, ptr noundef %30, i32 noundef 0, i32 noundef %31, i32 noundef 0)
  %33 = load ptr, ptr %9, align 8
  %34 = load ptr, ptr %10, align 8
  %35 = load i32, ptr %11, align 4
  %36 = load ptr, ptr %8, align 8
  call void @dissect_mode_byte(ptr noundef %33, ptr noundef %34, i32 noundef %35, ptr noundef %36)
  call void @llvm.lifetime.start.p0(i64 4, ptr %16) #11
  %37 = load ptr, ptr %10, align 8
  %38 = load i32, ptr %11, align 4
  %39 = call zeroext i8 @tvb_get_uint8(ptr noundef %37, i32 noundef %38)
  %40 = zext i8 %39 to i32
  store i32 %40, ptr %16, align 4
  call void @llvm.lifetime.start.p0(i64 4, ptr %17) #11
  call void @llvm.lifetime.start.p0(i64 4, ptr %18) #11
  call void @llvm.lifetime.start.p0(i64 4, ptr %19) #11
  %41 = load ptr, ptr %9, align 8
  %42 = load i32, ptr @hf_cipsafety_crc_s5_0, align 4
  %43 = load ptr, ptr %10, align 8
  %44 = load i32, ptr %11, align 4
  %45 = add i32 %44, 1
  %46 = call ptr @proto_tree_add_item_ret_uint(ptr noundef %41, i32 noundef %42, ptr noundef %43, i32 noundef %45, i32 noundef 1, i32 noundef -2147483648, ptr noundef %17)
  %47 = load ptr, ptr %9, align 8
  %48 = load i32, ptr @hf_cipsafety_crc_s5_1, align 4
  %49 = load ptr, ptr %10, align 8
  %50 = load i32, ptr %11, align 4
  %51 = add i32 %50, 2
  %52 = call ptr @proto_tree_add_item_ret_uint(ptr noundef %47, i32 noundef %48, ptr noundef %49, i32 noundef %51, i32 noundef 1, i32 noundef -2147483648, ptr noundef %18)
  %53 = load ptr, ptr %9, align 8
  %54 = load i32, ptr @hf_cipsafety_timestamp, align 4
  %55 = load ptr, ptr %10, align 8
  %56 = load i32, ptr %11, align 4
  %57 = add i32 %56, 3
  %58 = call ptr @proto_tree_add_item(ptr noundef %53, i32 noundef %54, ptr noundef %55, i32 noundef %57, i32 noundef 2, i32 noundef -2147483648)
  %59 = load ptr, ptr %9, align 8
  %60 = load i32, ptr @hf_cipsafety_crc_s5_2, align 4
  %61 = load ptr, ptr %10, align 8
  %62 = load i32, ptr %11, align 4
  %63 = add i32 %62, 5
  %64 = call ptr @proto_tree_add_item_ret_uint(ptr noundef %59, i32 noundef %60, ptr noundef %61, i32 noundef %63, i32 noundef 1, i32 noundef -2147483648, ptr noundef %19)
  call void @llvm.lifetime.start.p0(i64 2, ptr %20) #11
  %65 = load ptr, ptr %10, align 8
  %66 = load i32, ptr %11, align 4
  %67 = add i32 %66, 3
  %68 = call zeroext i16 @tvb_get_letohs(ptr noundef %65, i32 noundef %67)
  store i16 %68, ptr %20, align 2
  call void @llvm.lifetime.start.p0(i64 4, ptr %21) #11
  store i32 0, ptr %21, align 4
  %69 = load ptr, ptr %14, align 8
  %70 = icmp ne ptr %69, null
  br i1 %70, label %71, label %86

71:                                               ; preds = %7
  %72 = load ptr, ptr %13, align 8
  %73 = call i32 @compute_crc_s5_pid(ptr noundef %72)
  %74 = load ptr, ptr %14, align 8
  %75 = getelementptr inbounds nuw %struct.cip_safety_packet_data, ptr %74, i32 0, i32 0
  %76 = load i16, ptr %75, align 2
  %77 = load i32, ptr %16, align 4
  %78 = and i32 %77, 224
  %79 = trunc i32 %78 to i8
  %80 = load i16, ptr %20, align 2
  %81 = load ptr, ptr %10, align 8
  %82 = load i32, ptr %11, align 4
  %83 = call ptr @tvb_get_ptr(ptr noundef %81, i32 noundef 0, i32 noundef %82)
  %84 = load i32, ptr %11, align 4
  %85 = call i32 @compute_crc_s5_short_data(i32 noundef %73, i16 noundef zeroext %76, i8 noundef zeroext %79, i16 noundef zeroext %80, ptr noundef %83, i32 noundef %84)
  store i32 %85, ptr %21, align 4
  br label %86

86:                                               ; preds = %71, %7
  %87 = load ptr, ptr %8, align 8
  %88 = load ptr, ptr %9, align 8
  %89 = load ptr, ptr %10, align 8
  %90 = load i8, ptr %12, align 1, !range !13, !noundef !14
  %91 = trunc i8 %90 to i1
  %92 = load i32, ptr %17, align 4
  %93 = load i32, ptr %18, align 4
  %94 = load i32, ptr %19, align 4
  %95 = load i32, ptr %21, align 4
  call void @validate_crc_s5(ptr noundef %87, ptr noundef %88, ptr noundef %89, i1 noundef zeroext %91, i32 noundef %92, i32 noundef %93, i32 noundef %94, i32 noundef %95)
  call void @llvm.lifetime.end.p0(i64 4, ptr %21) #11
  call void @llvm.lifetime.end.p0(i64 2, ptr %20) #11
  call void @llvm.lifetime.end.p0(i64 4, ptr %19) #11
  call void @llvm.lifetime.end.p0(i64 4, ptr %18) #11
  call void @llvm.lifetime.end.p0(i64 4, ptr %17) #11
  call void @llvm.lifetime.end.p0(i64 4, ptr %16) #11
  call void @llvm.lifetime.end.p0(i64 8, ptr %15) #11
  ret void
}