; Function Attrs: null_pointer_is_valid sspstrong uwtable
define internal fastcc void @dissect_extended_format_1_or_2_byte_data(ptr noundef %0, ptr noundef %1, ptr noundef %2, i32 noundef range(i32 -6, 2147483642) %3, i1 noundef zeroext %4, ptr noundef readonly captures(none) %5, ptr noundef readonly captures(address_is_null) %6) unnamed_addr #2 {
  %8 = alloca i16, align 2
  %9 = alloca i8, align 1
  %10 = alloca i16, align 2
  %11 = alloca [8 x i8], align 2
  %12 = alloca i32, align 4
  %13 = alloca i32, align 4
  %14 = alloca i32, align 4
  %15 = load i32, ptr @hf_cip_safety_message_encoding, align 4
  %16 = tail call ptr @proto_tree_add_uint(ptr noundef %1, i32 noundef %15, ptr noundef %2, i32 noundef 0, i32 noundef 0, i32 noundef 1)
  %.not.i = icmp eq ptr %16, null
  br i1 %.not.i, label %proto_item_set_generated.exit, label %17

17:                                               ; preds = %7
  %18 = getelementptr inbounds nuw i8, ptr %16, i64 40
  %19 = load ptr, ptr %18, align 8
  %.not5.i = icmp eq ptr %19, null
  br i1 %.not5.i, label %proto_item_set_generated.exit, label %20

20:                                               ; preds = %17
  %21 = getelementptr inbounds nuw i8, ptr %19, i64 28
  %22 = load i32, ptr %21, align 4
  %23 = or i32 %22, 2
  store i32 %23, ptr %21, align 4
  br label %proto_item_set_generated.exit

proto_item_set_generated.exit:                    ; preds = %7, %17, %20
  %24 = load i32, ptr @hf_cipsafety_data, align 4
  %25 = tail call ptr @proto_tree_add_item(ptr noundef %1, i32 noundef %24, ptr noundef %2, i32 noundef 0, i32 noundef %3, i32 noundef 0)
  tail call fastcc void @dissect_mode_byte(ptr noundef %1, ptr noundef %2, i32 noundef %3, ptr noundef %0)
  %26 = tail call zeroext i8 @tvb_get_uint8(ptr noundef %2, i32 noundef %3)
  call void @llvm.lifetime.start.p0(i64 4, ptr nonnull %12) #7
  call void @llvm.lifetime.start.p0(i64 4, ptr nonnull %13) #7
  call void @llvm.lifetime.start.p0(i64 4, ptr nonnull %14) #7
  %27 = load i32, ptr @hf_cipsafety_crc_s5_0, align 4
  %28 = add nsw i32 %3, 1
  %29 = call ptr @proto_tree_add_item_ret_uint(ptr noundef %1, i32 noundef %27, ptr noundef %2, i32 noundef %28, i32 noundef 1, i32 noundef -2147483648, ptr noundef nonnull %12)
  %30 = load i32, ptr @hf_cipsafety_crc_s5_1, align 4
  %31 = add nsw i32 %3, 2
  %32 = call ptr @proto_tree_add_item_ret_uint(ptr noundef %1, i32 noundef %30, ptr noundef %2, i32 noundef %31, i32 noundef 1, i32 noundef -2147483648, ptr noundef nonnull %13)
  %33 = load i32, ptr @hf_cipsafety_timestamp, align 4
  %34 = add nsw i32 %3, 3
  %35 = call ptr @proto_tree_add_item(ptr noundef %1, i32 noundef %33, ptr noundef %2, i32 noundef %34, i32 noundef 2, i32 noundef -2147483648)
  %36 = load i32, ptr @hf_cipsafety_crc_s5_2, align 4
  %37 = add nsw i32 %3, 5
  %38 = call ptr @proto_tree_add_item_ret_uint(ptr noundef %1, i32 noundef %36, ptr noundef %2, i32 noundef %37, i32 noundef 1, i32 noundef -2147483648, ptr noundef nonnull %14)
  %39 = call zeroext i16 @tvb_get_letohs(ptr noundef %2, i32 noundef %34)
  %.not = icmp eq ptr %6, null
  br i1 %.not, label %56, label %40

40:                                               ; preds = %proto_item_set_generated.exit
  call void @llvm.lifetime.start.p0(i64 8, ptr nonnull %11) #7
  %41 = getelementptr inbounds nuw i8, ptr %5, i64 2
  %42 = load i16, ptr %41, align 1
  store i16 %42, ptr %11, align 2
  %43 = getelementptr inbounds nuw i8, ptr %11, i64 2
  %44 = getelementptr inbounds nuw i8, ptr %5, i64 4
  %45 = load i32, ptr %44, align 1
  store i32 %45, ptr %43, align 2
  %46 = getelementptr inbounds nuw i8, ptr %11, i64 6
  %47 = load i16, ptr %5, align 1
  store i16 %47, ptr %46, align 2
  %48 = call i32 @crc32_0x5D6DCB_seed(ptr noundef nonnull %11, i32 noundef 8, i32 noundef 0)
  call void @llvm.lifetime.end.p0(i64 8, ptr nonnull %11) #7
  %49 = load i16, ptr %6, align 2
  %50 = and i8 %26, -32
  %51 = call ptr @tvb_get_ptr(ptr noundef %2, i32 noundef 0, i32 noundef %3)
  call void @llvm.lifetime.start.p0(i64 2, ptr nonnull %8)
  call void @llvm.lifetime.start.p0(i64 1, ptr nonnull %9)
  call void @llvm.lifetime.start.p0(i64 2, ptr nonnull %10)
  store i16 %49, ptr %8, align 2
  store i8 %50, ptr %9, align 1
  store i16 %39, ptr %10, align 2
  %52 = call i32 @crc32_0x5D6DCB_seed(ptr noundef nonnull %8, i32 noundef 2, i32 noundef %48)
  %53 = call i32 @crc32_0x5D6DCB_seed(ptr noundef nonnull %9, i32 noundef 1, i32 noundef %52)
  %54 = call i32 @crc32_0x5D6DCB_seed(ptr noundef %51, i32 noundef range(i32 -6, 2147483642) %3, i32 noundef %53)
  %55 = call i32 @crc32_0x5D6DCB_seed(ptr noundef nonnull %10, i32 noundef 2, i32 noundef %54)
  call void @llvm.lifetime.end.p0(i64 2, ptr nonnull %8)
  call void @llvm.lifetime.end.p0(i64 1, ptr nonnull %9)
  call void @llvm.lifetime.end.p0(i64 2, ptr nonnull %10)
  br label %56

56:                                               ; preds = %40, %proto_item_set_generated.exit
  %.0 = phi i32 [ %55, %40 ], [ 0, %proto_item_set_generated.exit ]
  %57 = load i32, ptr %12, align 4
  %58 = load i32, ptr %13, align 4
  %59 = load i32, ptr %14, align 4
  call fastcc void @validate_crc_s5(ptr noundef %0, ptr noundef %1, ptr noundef %2, i1 noundef zeroext %4, i32 noundef %57, i32 noundef %58, i32 noundef %59, i32 noundef %.0)
  call void @llvm.lifetime.end.p0(i64 4, ptr nonnull %14) #7
  call void @llvm.lifetime.end.p0(i64 4, ptr nonnull %13) #7
  call void @llvm.lifetime.end.p0(i64 4, ptr nonnull %12) #7
  ret void
}